libOnlineAccountsQt.so.1 libonline-accounts-qt1 #MINVER#
 _ZN10QByteArrayD1Ev@Base 0.1+16.04.20160212-0ubuntu1
 _ZN10QByteArrayD2Ev@Base 0.1+16.04.20160212-0ubuntu1
 _ZN14OnlineAccounts10OAuth1Data14setConsumerKeyERK10QByteArray@Base 0.1+16.04.20160212-0ubuntu1
 _ZN14OnlineAccounts10OAuth1Data17setConsumerSecretERK10QByteArray@Base 0.1+16.04.20160212-0ubuntu1
 _ZN14OnlineAccounts10OAuth1DataC1Ev@Base 0.1+16.04.20160212-0ubuntu1
 _ZN14OnlineAccounts10OAuth1DataC2Ev@Base 0.1+16.04.20160212-0ubuntu1
 _ZN14OnlineAccounts10OAuth1DataD0Ev@Base 0.1+16.04.20160212-0ubuntu1
 _ZN14OnlineAccounts10OAuth1DataD1Ev@Base 0.1+16.04.20160212-0ubuntu1
 _ZN14OnlineAccounts10OAuth1DataD2Ev@Base 0.1+16.04.20160212-0ubuntu1
 _ZN14OnlineAccounts10OAuth2Data11setClientIdERK10QByteArray@Base 0.1+16.04.20160212-0ubuntu1
 _ZN14OnlineAccounts10OAuth2Data15setClientSecretERK10QByteArray@Base 0.1+16.04.20160212-0ubuntu1
 _ZN14OnlineAccounts10OAuth2Data9setScopesERK5QListI10QByteArrayE@Base 0.1+16.04.20160212-0ubuntu1
 _ZN14OnlineAccounts10OAuth2DataC1Ev@Base 0.1+16.04.20160212-0ubuntu1
 _ZN14OnlineAccounts10OAuth2DataC2Ev@Base 0.1+16.04.20160212-0ubuntu1
 _ZN14OnlineAccounts10OAuth2DataD0Ev@Base 0.1+16.04.20160212-0ubuntu1
 _ZN14OnlineAccounts10OAuth2DataD1Ev@Base 0.1+16.04.20160212-0ubuntu1
 _ZN14OnlineAccounts10OAuth2DataD2Ev@Base 0.1+16.04.20160212-0ubuntu1
 _ZN14OnlineAccounts11OAuth1ReplyC1ERKNS_11PendingCallE@Base 0.1+16.04.20160212-0ubuntu1
 _ZN14OnlineAccounts11OAuth1ReplyC2ERKNS_11PendingCallE@Base 0.1+16.04.20160212-0ubuntu1
 _ZN14OnlineAccounts11OAuth1ReplyD0Ev@Base 0.1+16.04.20160212-0ubuntu1
 _ZN14OnlineAccounts11OAuth1ReplyD1Ev@Base 0.1+16.04.20160212-0ubuntu1
 _ZN14OnlineAccounts11OAuth1ReplyD2Ev@Base 0.1+16.04.20160212-0ubuntu1
 _ZN14OnlineAccounts11OAuth2ReplyC1ERKNS_11PendingCallE@Base 0.1+16.04.20160212-0ubuntu1
 _ZN14OnlineAccounts11OAuth2ReplyC2ERKNS_11PendingCallE@Base 0.1+16.04.20160212-0ubuntu1
 _ZN14OnlineAccounts11OAuth2ReplyD0Ev@Base 0.1+16.04.20160212-0ubuntu1
 _ZN14OnlineAccounts11OAuth2ReplyD1Ev@Base 0.1+16.04.20160212-0ubuntu1
 _ZN14OnlineAccounts11OAuth2ReplyD2Ev@Base 0.1+16.04.20160212-0ubuntu1
 _ZN14OnlineAccounts11PendingCall15waitForFinishedEv@Base 0.1+16.04.20160212-0ubuntu1
 _ZN14OnlineAccounts11PendingCallC1EPNS_18PendingCallPrivateE@Base 0.1+16.04.20160212-0ubuntu1
 _ZN14OnlineAccounts11PendingCallC1ERKS0_@Base 0.1+16.04.20160212-0ubuntu1
 _ZN14OnlineAccounts11PendingCallC2EPNS_18PendingCallPrivateE@Base 0.1+16.04.20160212-0ubuntu1
 _ZN14OnlineAccounts11PendingCallC2ERKS0_@Base 0.1+16.04.20160212-0ubuntu1
 _ZN14OnlineAccounts11PendingCallD1Ev@Base 0.1+16.04.20160212-0ubuntu1
 _ZN14OnlineAccounts11PendingCallD2Ev@Base 0.1+16.04.20160212-0ubuntu1
 _ZN14OnlineAccounts11PendingCallaSERKS0_@Base 0.1+16.04.20160212-0ubuntu1
 _ZN14OnlineAccounts12PasswordDataC1Ev@Base 0.1+16.04.20160212-0ubuntu1
 _ZN14OnlineAccounts12PasswordDataC2Ev@Base 0.1+16.04.20160212-0ubuntu1
 _ZN14OnlineAccounts12PasswordDataD0Ev@Base 0.1+16.04.20160212-0ubuntu1
 _ZN14OnlineAccounts12PasswordDataD1Ev@Base 0.1+16.04.20160212-0ubuntu1
 _ZN14OnlineAccounts12PasswordDataD2Ev@Base 0.1+16.04.20160212-0ubuntu1
 _ZN14OnlineAccounts13PasswordReplyC1ERKNS_11PendingCallE@Base 0.1+16.04.20160212-0ubuntu1
 _ZN14OnlineAccounts13PasswordReplyC2ERKNS_11PendingCallE@Base 0.1+16.04.20160212-0ubuntu1
 _ZN14OnlineAccounts13PasswordReplyD0Ev@Base 0.1+16.04.20160212-0ubuntu1
 _ZN14OnlineAccounts13PasswordReplyD1Ev@Base 0.1+16.04.20160212-0ubuntu1
 _ZN14OnlineAccounts13PasswordReplyD2Ev@Base 0.1+16.04.20160212-0ubuntu1
 _ZN14OnlineAccounts18AuthenticationData13setParametersERK4QMapI7QString8QVariantE@Base 0.1+16.04.20160212-0ubuntu1
 _ZN14OnlineAccounts18AuthenticationData14setInteractiveEb@Base 0.1+16.04.20160212-0ubuntu1
 _ZN14OnlineAccounts18AuthenticationData21invalidateCachedReplyEv@Base 0.1+16.04.20160212-0ubuntu1
 _ZN14OnlineAccounts18AuthenticationDataC1ENS_20AuthenticationMethodE@Base 0.1+16.04.20160212-0ubuntu1
 _ZN14OnlineAccounts18AuthenticationDataC1EPNS_25AuthenticationDataPrivateE@Base 0.1+16.04.20160212-0ubuntu1
 _ZN14OnlineAccounts18AuthenticationDataC1ERKS0_@Base 0.1+16.04.20160212-0ubuntu1
 _ZN14OnlineAccounts18AuthenticationDataC2ENS_20AuthenticationMethodE@Base 0.1+16.04.20160212-0ubuntu1
 _ZN14OnlineAccounts18AuthenticationDataC2EPNS_25AuthenticationDataPrivateE@Base 0.1+16.04.20160212-0ubuntu1
 _ZN14OnlineAccounts18AuthenticationDataC2ERKS0_@Base 0.1+16.04.20160212-0ubuntu1
 _ZN14OnlineAccounts18AuthenticationDataD0Ev@Base 0.1+16.04.20160212-0ubuntu1
 _ZN14OnlineAccounts18AuthenticationDataD1Ev@Base 0.1+16.04.20160212-0ubuntu1
 _ZN14OnlineAccounts18AuthenticationDataD2Ev@Base 0.1+16.04.20160212-0ubuntu1
 _ZN14OnlineAccounts18PendingCallWatcher11qt_metacallEN11QMetaObject4CallEiPPv@Base 0.1+16.04.20160212-0ubuntu1
 _ZN14OnlineAccounts18PendingCallWatcher11qt_metacastEPKc@Base 0.1+16.04.20160212-0ubuntu1
 _ZN14OnlineAccounts18PendingCallWatcher16staticMetaObjectE@Base 0.1+16.04.20160212-0ubuntu1
 _ZN14OnlineAccounts18PendingCallWatcher8finishedEv@Base 0.1+16.04.20160212-0ubuntu1
 _ZN14OnlineAccounts18PendingCallWatcherC1ERKNS_11PendingCallEP7QObject@Base 0.1+16.04.20160212-0ubuntu1
 _ZN14OnlineAccounts18PendingCallWatcherC2ERKNS_11PendingCallEP7QObject@Base 0.1+16.04.20160212-0ubuntu1
 _ZN14OnlineAccounts18PendingCallWatcherD0Ev@Base 0.1+16.04.20160212-0ubuntu1
 _ZN14OnlineAccounts18PendingCallWatcherD1Ev@Base 0.1+16.04.20160212-0ubuntu1
 _ZN14OnlineAccounts18PendingCallWatcherD2Ev@Base 0.1+16.04.20160212-0ubuntu1
 _ZN14OnlineAccounts18RequestAccessReply7accountEv@Base 0.1+16.04.20160212-0ubuntu1
 _ZN14OnlineAccounts18RequestAccessReplyC1ERKNS_11PendingCallE@Base 0.1+16.04.20160212-0ubuntu1
 _ZN14OnlineAccounts18RequestAccessReplyC2ERKNS_11PendingCallE@Base 0.1+16.04.20160212-0ubuntu1
 _ZN14OnlineAccounts18RequestAccessReplyD0Ev@Base 0.1+16.04.20160212-0ubuntu1
 _ZN14OnlineAccounts18RequestAccessReplyD1Ev@Base 0.1+16.04.20160212-0ubuntu1
 _ZN14OnlineAccounts18RequestAccessReplyD2Ev@Base 0.1+16.04.20160212-0ubuntu1
 _ZN14OnlineAccounts19AuthenticationReplyC1EPNS_26AuthenticationReplyPrivateE@Base 0.1+16.04.20160212-0ubuntu1
 _ZN14OnlineAccounts19AuthenticationReplyC1ERKNS_11PendingCallE@Base 0.1+16.04.20160212-0ubuntu1
 _ZN14OnlineAccounts19AuthenticationReplyC2EPNS_26AuthenticationReplyPrivateE@Base 0.1+16.04.20160212-0ubuntu1
 _ZN14OnlineAccounts19AuthenticationReplyC2ERKNS_11PendingCallE@Base 0.1+16.04.20160212-0ubuntu1
 _ZN14OnlineAccounts19AuthenticationReplyD0Ev@Base 0.1+16.04.20160212-0ubuntu1
 _ZN14OnlineAccounts19AuthenticationReplyD1Ev@Base 0.1+16.04.20160212-0ubuntu1
 _ZN14OnlineAccounts19AuthenticationReplyD2Ev@Base 0.1+16.04.20160212-0ubuntu1
 _ZN14OnlineAccounts7Account11qt_metacallEN11QMetaObject4CallEiPPv@Base 0.1+16.04.20160212-0ubuntu1
 _ZN14OnlineAccounts7Account11qt_metacastEPKc@Base 0.1+16.04.20160212-0ubuntu1
 _ZN14OnlineAccounts7Account12authenticateERKNS_18AuthenticationDataE@Base 0.1+16.04.20160212-0ubuntu1
 _ZN14OnlineAccounts7Account16staticMetaObjectE@Base 0.1+16.04.20160212-0ubuntu1
 _ZN14OnlineAccounts7Account7changedEv@Base 0.1+16.04.20160212-0ubuntu1
 _ZN14OnlineAccounts7Account8disabledEv@Base 0.1+16.04.20160212-0ubuntu1
 _ZN14OnlineAccounts7AccountC1EPNS_14AccountPrivateEP7QObject@Base 0.1+16.04.20160212-0ubuntu1
 _ZN14OnlineAccounts7AccountC2EPNS_14AccountPrivateEP7QObject@Base 0.1+16.04.20160212-0ubuntu1
 _ZN14OnlineAccounts7AccountD0Ev@Base 0.1+16.04.20160212-0ubuntu1
 _ZN14OnlineAccounts7AccountD1Ev@Base 0.1+16.04.20160212-0ubuntu1
 _ZN14OnlineAccounts7AccountD2Ev@Base 0.1+16.04.20160212-0ubuntu1
 _ZN14OnlineAccounts7Manager11qt_metacallEN11QMetaObject4CallEiPPv@Base 0.1+16.04.20160212-0ubuntu1
 _ZN14OnlineAccounts7Manager11qt_metacastEPKc@Base 0.1+16.04.20160212-0ubuntu1
 _ZN14OnlineAccounts7Manager12waitForReadyEv@Base 0.1+16.04.20160212-0ubuntu1
 _ZN14OnlineAccounts7Manager13requestAccessERK7QStringRKNS_18AuthenticationDataE@Base 0.1+16.04.20160212-0ubuntu1
 _ZN14OnlineAccounts7Manager16accountAvailableEPNS_7AccountE@Base 0.1+16.04.20160212-0ubuntu1
 _ZN14OnlineAccounts7Manager16staticMetaObjectE@Base 0.1+16.04.20160212-0ubuntu1
 _ZN14OnlineAccounts7Manager17availableAccountsERK7QString@Base 0.1+16.04.20160212-0ubuntu1
 _ZN14OnlineAccounts7Manager5readyEv@Base 0.1+16.04.20160212-0ubuntu1
 _ZN14OnlineAccounts7Manager7accountEj@Base 0.1+16.04.20160212-0ubuntu1
 _ZN14OnlineAccounts7Manager7accountEjRK7QString@Base 0.1+16.10.20160721-0ubuntu1
 _ZN14OnlineAccounts7ManagerC1ERK7QStringP7QObject@Base 0.1+16.04.20160212-0ubuntu1
 _ZN14OnlineAccounts7ManagerC1ERK7QStringRK15QDBusConnectionP7QObject@Base 0.1+16.10.20160721-0ubuntu1
 _ZN14OnlineAccounts7ManagerC2ERK7QStringP7QObject@Base 0.1+16.04.20160212-0ubuntu1
 _ZN14OnlineAccounts7ManagerC2ERK7QStringRK15QDBusConnectionP7QObject@Base 0.1+16.10.20160721-0ubuntu1
 _ZN14OnlineAccounts7ManagerD0Ev@Base 0.1+16.04.20160212-0ubuntu1
 _ZN14OnlineAccounts7ManagerD1Ev@Base 0.1+16.04.20160212-0ubuntu1
 _ZN14OnlineAccounts7ManagerD2Ev@Base 0.1+16.04.20160212-0ubuntu1
 _ZN14OnlineAccounts8SaslData10setLocalIpERK7QString@Base 0.1+16.04.20160212-0ubuntu1
 _ZN14OnlineAccounts8SaslData10setServiceERK7QString@Base 0.1+16.04.20160212-0ubuntu1
 _ZN14OnlineAccounts8SaslData11setRemoteIpERK7QString@Base 0.1+16.04.20160212-0ubuntu1
 _ZN14OnlineAccounts8SaslData12setChallengeERK10QByteArray@Base 0.1+16.04.20160212-0ubuntu1
 _ZN14OnlineAccounts8SaslData13setServerFqdnERK7QString@Base 0.1+16.04.20160212-0ubuntu1
 _ZN14OnlineAccounts8SaslData16setMechanismListERK10QByteArray@Base 0.1+16.04.20160212-0ubuntu1
 _ZN14OnlineAccounts8SaslDataC1Ev@Base 0.1+16.04.20160212-0ubuntu1
 _ZN14OnlineAccounts8SaslDataC2Ev@Base 0.1+16.04.20160212-0ubuntu1
 _ZN14OnlineAccounts8SaslDataD0Ev@Base 0.1+16.04.20160212-0ubuntu1
 _ZN14OnlineAccounts8SaslDataD1Ev@Base 0.1+16.04.20160212-0ubuntu1
 _ZN14OnlineAccounts8SaslDataD2Ev@Base 0.1+16.04.20160212-0ubuntu1
 _ZN14OnlineAccounts9SaslReplyC1ERKNS_11PendingCallE@Base 0.1+16.04.20160212-0ubuntu1
 _ZN14OnlineAccounts9SaslReplyC2ERKNS_11PendingCallE@Base 0.1+16.04.20160212-0ubuntu1
 _ZN14OnlineAccounts9SaslReplyD0Ev@Base 0.1+16.04.20160212-0ubuntu1
 _ZN14OnlineAccounts9SaslReplyD1Ev@Base 0.1+16.04.20160212-0ubuntu1
 _ZN14OnlineAccounts9SaslReplyD2Ev@Base 0.1+16.04.20160212-0ubuntu1
 _ZN7QStringD1Ev@Base 0.1+16.04.20160212-0ubuntu1
 _ZN7QStringD2Ev@Base 0.1+16.04.20160212-0ubuntu1
 _ZNK14OnlineAccounts10OAuth1Data11consumerKeyEv@Base 0.1+16.04.20160212-0ubuntu1
 _ZNK14OnlineAccounts10OAuth1Data14consumerSecretEv@Base 0.1+16.04.20160212-0ubuntu1
 _ZNK14OnlineAccounts10OAuth2Data12clientSecretEv@Base 0.1+16.04.20160212-0ubuntu1
 _ZNK14OnlineAccounts10OAuth2Data6scopesEv@Base 0.1+16.04.20160212-0ubuntu1
 _ZNK14OnlineAccounts10OAuth2Data8clientIdEv@Base 0.1+16.04.20160212-0ubuntu1
 _ZNK14OnlineAccounts11OAuth1Reply11consumerKeyEv@Base 0.1+16.04.20160212-0ubuntu1
 _ZNK14OnlineAccounts11OAuth1Reply11tokenSecretEv@Base 0.1+16.04.20160212-0ubuntu1
 _ZNK14OnlineAccounts11OAuth1Reply14consumerSecretEv@Base 0.1+16.04.20160212-0ubuntu1
 _ZNK14OnlineAccounts11OAuth1Reply15signatureMethodEv@Base 0.1+16.04.20160212-0ubuntu1
 _ZNK14OnlineAccounts11OAuth1Reply5tokenEv@Base 0.1+16.04.20160212-0ubuntu1
 _ZNK14OnlineAccounts11OAuth2Reply11accessTokenEv@Base 0.1+16.04.20160212-0ubuntu1
 _ZNK14OnlineAccounts11OAuth2Reply13grantedScopesEv@Base 0.1+16.04.20160212-0ubuntu1
 _ZNK14OnlineAccounts11OAuth2Reply9expiresInEv@Base 0.1+16.04.20160212-0ubuntu1
 _ZNK14OnlineAccounts11PendingCall10isFinishedEv@Base 0.1+16.04.20160212-0ubuntu1
 _ZNK14OnlineAccounts13PasswordReply8passwordEv@Base 0.1+16.04.20160212-0ubuntu1
 _ZNK14OnlineAccounts13PasswordReply8usernameEv@Base 0.1+16.04.20160212-0ubuntu1
 _ZNK14OnlineAccounts18AuthenticationData10parametersEv@Base 0.1+16.04.20160212-0ubuntu1
 _ZNK14OnlineAccounts18AuthenticationData11interactiveEv@Base 0.1+16.04.20160212-0ubuntu1
 _ZNK14OnlineAccounts18AuthenticationData25mustInvalidateCachedReplyEv@Base 0.1+16.04.20160212-0ubuntu1
 _ZNK14OnlineAccounts18AuthenticationData6methodEv@Base 0.1+16.04.20160212-0ubuntu1
 _ZNK14OnlineAccounts18PendingCallWatcher10metaObjectEv@Base 0.1+16.04.20160212-0ubuntu1
 _ZNK14OnlineAccounts18RequestAccessReply5errorEv@Base 0.1+16.04.20160212-0ubuntu1
 _ZNK14OnlineAccounts19AuthenticationReply4dataEv@Base 0.1+16.04.20160212-0ubuntu1
 _ZNK14OnlineAccounts19AuthenticationReply5errorEv@Base 0.1+16.04.20160212-0ubuntu1
 _ZNK14OnlineAccounts7Account10metaObjectEv@Base 0.1+16.04.20160212-0ubuntu1
 _ZNK14OnlineAccounts7Account11displayNameEv@Base 0.1+16.04.20160212-0ubuntu1
 _ZNK14OnlineAccounts7Account20authenticationMethodEv@Base 0.1+16.04.20160212-0ubuntu1
 _ZNK14OnlineAccounts7Account2idEv@Base 0.1+16.04.20160212-0ubuntu1
 _ZNK14OnlineAccounts7Account4keysEv@Base 0.1+16.04.20160212-0ubuntu1
 _ZNK14OnlineAccounts7Account7isValidEv@Base 0.1+16.04.20160212-0ubuntu1
 _ZNK14OnlineAccounts7Account7settingERK7QString@Base 0.1+16.04.20160212-0ubuntu1
 _ZNK14OnlineAccounts7Account9serviceIdEv@Base 0.1+16.04.20160212-0ubuntu1
 _ZNK14OnlineAccounts7Manager10metaObjectEv@Base 0.1+16.04.20160212-0ubuntu1
 _ZNK14OnlineAccounts7Manager7isReadyEv@Base 0.1+16.04.20160212-0ubuntu1
 _ZNK14OnlineAccounts8SaslData10serverFqdnEv@Base 0.1+16.04.20160212-0ubuntu1
 _ZNK14OnlineAccounts8SaslData13mechanismListEv@Base 0.1+16.04.20160212-0ubuntu1
 _ZNK14OnlineAccounts8SaslData7localIpEv@Base 0.1+16.04.20160212-0ubuntu1
 _ZNK14OnlineAccounts8SaslData7serviceEv@Base 0.1+16.04.20160212-0ubuntu1
 _ZNK14OnlineAccounts8SaslData8remoteIpEv@Base 0.1+16.04.20160212-0ubuntu1
 _ZNK14OnlineAccounts8SaslData9challengeEv@Base 0.1+16.04.20160212-0ubuntu1
 _ZNK14OnlineAccounts9SaslReply15chosenMechanismEv@Base 0.1+16.04.20160212-0ubuntu1
 _ZNK14OnlineAccounts9SaslReply5stateEv@Base 0.1+16.04.20160212-0ubuntu1
 _ZNK14OnlineAccounts9SaslReply8responseEv@Base 0.1+16.04.20160212-0ubuntu1
 _ZTI11QSharedData@Base 0.1+16.04.20160212-0ubuntu1
 _ZTIN14OnlineAccounts10OAuth1DataE@Base 0.1+16.04.20160212-0ubuntu1
 _ZTIN14OnlineAccounts10OAuth2DataE@Base 0.1+16.04.20160212-0ubuntu1
 _ZTIN14OnlineAccounts11OAuth1ReplyE@Base 0.1+16.04.20160212-0ubuntu1
 _ZTIN14OnlineAccounts11OAuth2ReplyE@Base 0.1+16.04.20160212-0ubuntu1
 _ZTIN14OnlineAccounts11PendingCallE@Base 0.1+16.04.20160212-0ubuntu1
 _ZTIN14OnlineAccounts12PasswordDataE@Base 0.1+16.04.20160212-0ubuntu1
 _ZTIN14OnlineAccounts13PasswordReplyE@Base 0.1+16.04.20160212-0ubuntu1
 _ZTIN14OnlineAccounts18AuthenticationDataE@Base 0.1+16.04.20160212-0ubuntu1
 _ZTIN14OnlineAccounts18PendingCallWatcherE@Base 0.1+16.04.20160212-0ubuntu1
 _ZTIN14OnlineAccounts18RequestAccessReplyE@Base 0.1+16.04.20160212-0ubuntu1
 _ZTIN14OnlineAccounts19AuthenticationReplyE@Base 0.1+16.04.20160212-0ubuntu1
 _ZTIN14OnlineAccounts7AccountE@Base 0.1+16.04.20160212-0ubuntu1
 _ZTIN14OnlineAccounts7ManagerE@Base 0.1+16.04.20160212-0ubuntu1
 _ZTIN14OnlineAccounts8SaslDataE@Base 0.1+16.04.20160212-0ubuntu1
 _ZTIN14OnlineAccounts9SaslReplyE@Base 0.1+16.04.20160212-0ubuntu1
 _ZTS11QSharedData@Base 0.1+16.04.20160212-0ubuntu1
 _ZTSN14OnlineAccounts10OAuth1DataE@Base 0.1+16.04.20160212-0ubuntu1
 _ZTSN14OnlineAccounts10OAuth2DataE@Base 0.1+16.04.20160212-0ubuntu1
 _ZTSN14OnlineAccounts11OAuth1ReplyE@Base 0.1+16.04.20160212-0ubuntu1
 _ZTSN14OnlineAccounts11OAuth2ReplyE@Base 0.1+16.04.20160212-0ubuntu1
 _ZTSN14OnlineAccounts11PendingCallE@Base 0.1+16.04.20160212-0ubuntu1
 _ZTSN14OnlineAccounts12PasswordDataE@Base 0.1+16.04.20160212-0ubuntu1
 _ZTSN14OnlineAccounts13PasswordReplyE@Base 0.1+16.04.20160212-0ubuntu1
 _ZTSN14OnlineAccounts18AuthenticationDataE@Base 0.1+16.04.20160212-0ubuntu1
 _ZTSN14OnlineAccounts18PendingCallWatcherE@Base 0.1+16.04.20160212-0ubuntu1
 _ZTSN14OnlineAccounts18RequestAccessReplyE@Base 0.1+16.04.20160212-0ubuntu1
 _ZTSN14OnlineAccounts19AuthenticationReplyE@Base 0.1+16.04.20160212-0ubuntu1
 _ZTSN14OnlineAccounts7AccountE@Base 0.1+16.04.20160212-0ubuntu1
 _ZTSN14OnlineAccounts7ManagerE@Base 0.1+16.04.20160212-0ubuntu1
 _ZTSN14OnlineAccounts8SaslDataE@Base 0.1+16.04.20160212-0ubuntu1
 _ZTSN14OnlineAccounts9SaslReplyE@Base 0.1+16.04.20160212-0ubuntu1
 _ZTVN14OnlineAccounts10OAuth1DataE@Base 0.1+16.04.20160212-0ubuntu1
 _ZTVN14OnlineAccounts10OAuth2DataE@Base 0.1+16.04.20160212-0ubuntu1
 _ZTVN14OnlineAccounts11OAuth1ReplyE@Base 0.1+16.04.20160212-0ubuntu1
 _ZTVN14OnlineAccounts11OAuth2ReplyE@Base 0.1+16.04.20160212-0ubuntu1
 _ZTVN14OnlineAccounts12PasswordDataE@Base 0.1+16.04.20160212-0ubuntu1
 _ZTVN14OnlineAccounts13PasswordReplyE@Base 0.1+16.04.20160212-0ubuntu1
 _ZTVN14OnlineAccounts18AuthenticationDataE@Base 0.1+16.04.20160212-0ubuntu1
 _ZTVN14OnlineAccounts18PendingCallWatcherE@Base 0.1+16.04.20160212-0ubuntu1
 _ZTVN14OnlineAccounts18RequestAccessReplyE@Base 0.1+16.04.20160212-0ubuntu1
 _ZTVN14OnlineAccounts19AuthenticationReplyE@Base 0.1+16.04.20160212-0ubuntu1
 _ZTVN14OnlineAccounts7AccountE@Base 0.1+16.04.20160212-0ubuntu1
 _ZTVN14OnlineAccounts7ManagerE@Base 0.1+16.04.20160212-0ubuntu1
 _ZTVN14OnlineAccounts8SaslDataE@Base 0.1+16.04.20160212-0ubuntu1
 _ZTVN14OnlineAccounts9SaslReplyE@Base 0.1+16.04.20160212-0ubuntu1
